target datalayout = "e-m:e-p270:32:32-p271:32:32-p272:64:64-i64:64-i128:128-f80:128-n8:16:32:64-S128"
target triple = "x86_64-pc-linux-gnu"

%struct.lean_object = type { i32, i32 }

; Function Attrs: inlinehint nounwind uwtable
define internal zeroext i8 @lean_uint32_dec_le(i32 noundef %0, i32 noundef %1) #0 {
  %3 = alloca i32, align 4
  %4 = alloca i32, align 4
  store i32 %0, ptr %3, align 4, !tbaa !8
  store i32 %1, ptr %4, align 4, !tbaa !8
  %5 = load i32, ptr %3, align 4, !tbaa !8
  %6 = load i32, ptr %4, align 4, !tbaa !8
  %7 = icmp ule i32 %5, %6
  %8 = zext i1 %7 to i32
  %9 = trunc i32 %8 to i8
  ret i8 %9
}

; Function Attrs: alwaysinline nounwind uwtable
define internal void @lean_dec_ref(ptr noundef %0) #1 {
  %2 = alloca ptr, align 8
  store ptr %0, ptr %2, align 8, !tbaa !4
  %3 = load ptr, ptr %2, align 8, !tbaa !4
  %4 = getelementptr inbounds nuw %struct.lean_object, ptr %3, i32 0, i32 0
  %5 = load i32, ptr %4, align 4, !tbaa !17
  %6 = icmp sgt i32 %5, 1
  %7 = zext i1 %6 to i32
  %8 = sext i32 %7 to i64
  %9 = call i64 @llvm.expect.i64(i64 %8, i64 1)
  %10 = icmp ne i64 %9, 0
  br i1 %10, label %11, label %16

11:                                               ; preds = %1
  %12 = load ptr, ptr %2, align 8, !tbaa !4
  %13 = getelementptr inbounds nuw %struct.lean_object, ptr %12, i32 0, i32 0
  %14 = load i32, ptr %13, align 4, !tbaa !17
  %15 = add i32 %14, -1
  store i32 %15, ptr %13, align 4, !tbaa !17
  br label %24

16:                                               ; preds = %1
  %17 = load ptr, ptr %2, align 8, !tbaa !4
  %18 = getelementptr inbounds nuw %struct.lean_object, ptr %17, i32 0, i32 0
  %19 = load i32, ptr %18, align 4, !tbaa !17
  %20 = icmp ne i32 %19, 0
  br i1 %20, label %21, label %23

21:                                               ; preds = %16
  %22 = load ptr, ptr %2, align 8, !tbaa !4
  call void @lean_dec_ref_cold(ptr noundef %22)
  br label %23

23:                                               ; preds = %21, %16
  br label %24

24:                                               ; preds = %23, %11
  ret void
}

; Function Attrs: alwaysinline nounwind uwtable
define internal zeroext i1 @lean_is_scalar(ptr noundef %0) #1 {
  %2 = alloca ptr, align 8
  store ptr %0, ptr %2, align 8, !tbaa !4
  %3 = load ptr, ptr %2, align 8, !tbaa !4
  %4 = ptrtoint ptr %3 to i64
  %5 = and i64 %4, 1
  %6 = icmp eq i64 %5, 1
  ret i1 %6
}

; Function Attrs: inlinehint nounwind uwtable
define internal i64 @lean_unbox(ptr noundef %0) #0 {
  %2 = alloca ptr, align 8
  store ptr %0, ptr %2, align 8, !tbaa !4
  %3 = load ptr, ptr %2, align 8, !tbaa !4
  %4 = ptrtoint ptr %3 to i64
  %5 = lshr i64 %4, 1
  ret i64 %5
}

; Function Attrs: inlinehint nounwind uwtable
define internal ptr @lean_box(i64 noundef %0) #0 {
  %2 = alloca i64, align 8
  store i64 %0, ptr %2, align 8, !tbaa !12
  %3 = load i64, ptr %2, align 8, !tbaa !12
  %4 = shl i64 %3, 1
  %5 = or i64 %4, 1
  %6 = inttoptr i64 %5 to ptr
  ret ptr %6
}

; Function Attrs: nounwind uwtable
define zeroext i8 @l_Lake_Toml_isHexDigit(i32 noundef %0) #2 {
  %2 = alloca i8, align 1
  %3 = alloca i32, align 4
  %4 = alloca ptr, align 8
  %5 = alloca i32, align 4
  %6 = alloca i8, align 1
  %7 = alloca ptr, align 8
  %8 = alloca i32, align 4
  %9 = alloca i32, align 4
  %10 = alloca i8, align 1
  %11 = alloca ptr, align 8
  %12 = alloca i8, align 1
  %13 = alloca i32, align 4
  %14 = alloca i8, align 1
  %15 = alloca i32, align 4
  %16 = alloca i8, align 1
  %17 = alloca i8, align 1
  %18 = alloca i32, align 4
  %19 = alloca i8, align 1
  %20 = alloca i32, align 4
  %21 = alloca i8, align 1
  %22 = alloca i32, align 4
  %23 = alloca i8, align 1
  %24 = alloca i8, align 1
  %25 = alloca i32, align 4
  %26 = alloca i8, align 1
  %27 = alloca i8, align 1
  store i32 %0, ptr %3, align 4, !tbaa !8
  br label %28

28:                                               ; preds = %1
  call void @llvm.lifetime.start.p0(i64 8, ptr %4) #7
  call void @llvm.lifetime.start.p0(i64 4, ptr %5) #7
  call void @llvm.lifetime.start.p0(i64 1, ptr %6) #7
  store i32 48, ptr %5, align 4, !tbaa !8
  %29 = load i32, ptr %5, align 4, !tbaa !8
  %30 = load i32, ptr %3, align 4, !tbaa !8
  %31 = call zeroext i8 @lean_uint32_dec_le(i32 noundef %29, i32 noundef %30)
  store i8 %31, ptr %6, align 1, !tbaa !14
  %32 = load i8, ptr %6, align 1, !tbaa !14
  %33 = zext i8 %32 to i32
  %34 = icmp eq i32 %33, 0
  br i1 %34, label %35, label %39

35:                                               ; preds = %28
  call void @llvm.lifetime.start.p0(i64 8, ptr %7) #7
  %36 = call ptr @lean_box(i64 noundef 0)
  store ptr %36, ptr %7, align 8, !tbaa !4
  %37 = load ptr, ptr %7, align 8, !tbaa !4
  store ptr %37, ptr %4, align 8, !tbaa !4
  store i32 3, ptr %8, align 4
  call void @llvm.lifetime.end.p0(i64 8, ptr %7) #7
  %38 = load i32, ptr %8, align 4
  switch i32 %38, label %102 [
    i32 3, label %53
  ]

39:                                               ; preds = %28
  call void @llvm.lifetime.start.p0(i64 4, ptr %9) #7
  call void @llvm.lifetime.start.p0(i64 1, ptr %10) #7
  store i32 57, ptr %9, align 4, !tbaa !8
  %40 = load i32, ptr %3, align 4, !tbaa !8
  %41 = load i32, ptr %9, align 4, !tbaa !8
  %42 = call zeroext i8 @lean_uint32_dec_le(i32 noundef %40, i32 noundef %41)
  store i8 %42, ptr %10, align 1, !tbaa !14
  %43 = load i8, ptr %10, align 1, !tbaa !14
  %44 = zext i8 %43 to i32
  %45 = icmp eq i32 %44, 0
  br i1 %45, label %46, label %49

46:                                               ; preds = %39
  call void @llvm.lifetime.start.p0(i64 8, ptr %11) #7
  %47 = call ptr @lean_box(i64 noundef 0)
  store ptr %47, ptr %11, align 8, !tbaa !4
  %48 = load ptr, ptr %11, align 8, !tbaa !4
  store ptr %48, ptr %4, align 8, !tbaa !4
  store i32 3, ptr %8, align 4
  call void @llvm.lifetime.end.p0(i64 8, ptr %11) #7
  br label %51

49:                                               ; preds = %39
  call void @llvm.lifetime.start.p0(i64 1, ptr %12) #7
  store i8 1, ptr %12, align 1, !tbaa !14
  %50 = load i8, ptr %12, align 1, !tbaa !14
  store i8 %50, ptr %2, align 1
  store i32 1, ptr %8, align 4
  call void @llvm.lifetime.end.p0(i64 1, ptr %12) #7
  br label %51

51:                                               ; preds = %49, %46
  call void @llvm.lifetime.end.p0(i64 1, ptr %10) #7
  call void @llvm.lifetime.end.p0(i64 4, ptr %9) #7
  %52 = load i32, ptr %8, align 4
  switch i32 %52, label %102 [
    i32 3, label %53
  ]

53:                                               ; preds = %51, %35
  call void @llvm.lifetime.start.p0(i64 4, ptr %13) #7
  call void @llvm.lifetime.start.p0(i64 1, ptr %14) #7
  %54 = load ptr, ptr %4, align 8, !tbaa !4
  call void @lean_dec(ptr noundef %54)
  store i32 97, ptr %13, align 4, !tbaa !8
  %55 = load i32, ptr %13, align 4, !tbaa !8
  %56 = load i32, ptr %3, align 4, !tbaa !8
  %57 = call zeroext i8 @lean_uint32_dec_le(i32 noundef %55, i32 noundef %56)
  store i8 %57, ptr %14, align 1, !tbaa !14
  %58 = load i8, ptr %14, align 1, !tbaa !14
  %59 = zext i8 %58 to i32
  %60 = icmp eq i32 %59, 0
  br i1 %60, label %61, label %76

61:                                               ; preds = %53
  call void @llvm.lifetime.start.p0(i64 4, ptr %15) #7
  call void @llvm.lifetime.start.p0(i64 1, ptr %16) #7
  store i32 65, ptr %15, align 4, !tbaa !8
  %62 = load i32, ptr %15, align 4, !tbaa !8
  %63 = load i32, ptr %3, align 4, !tbaa !8
  %64 = call zeroext i8 @lean_uint32_dec_le(i32 noundef %62, i32 noundef %63)
  store i8 %64, ptr %16, align 1, !tbaa !14
  %65 = load i8, ptr %16, align 1, !tbaa !14
  %66 = zext i8 %65 to i32
  %67 = icmp eq i32 %66, 0
  br i1 %67, label %68, label %70

68:                                               ; preds = %61
  call void @llvm.lifetime.start.p0(i64 1, ptr %17) #7
  store i8 0, ptr %17, align 1, !tbaa !14
  %69 = load i8, ptr %17, align 1, !tbaa !14
  store i8 %69, ptr %2, align 1
  store i32 1, ptr %8, align 4
  call void @llvm.lifetime.end.p0(i64 1, ptr %17) #7
  br label %75

70:                                               ; preds = %61
  call void @llvm.lifetime.start.p0(i64 4, ptr %18) #7
  call void @llvm.lifetime.start.p0(i64 1, ptr %19) #7
  store i32 70, ptr %18, align 4, !tbaa !8
  %71 = load i32, ptr %3, align 4, !tbaa !8
  %72 = load i32, ptr %18, align 4, !tbaa !8
  %73 = call zeroext i8 @lean_uint32_dec_le(i32 noundef %71, i32 noundef %72)
  store i8 %73, ptr %19, align 1, !tbaa !14
  %74 = load i8, ptr %19, align 1, !tbaa !14
  store i8 %74, ptr %2, align 1
  store i32 1, ptr %8, align 4
  call void @llvm.lifetime.end.p0(i64 1, ptr %19) #7
  call void @llvm.lifetime.end.p0(i64 4, ptr %18) #7
  br label %75

75:                                               ; preds = %70, %68
  call void @llvm.lifetime.end.p0(i64 1, ptr %16) #7
  call void @llvm.lifetime.end.p0(i64 4, ptr %15) #7
  br label %101

76:                                               ; preds = %53
  call void @llvm.lifetime.start.p0(i64 4, ptr %20) #7
  call void @llvm.lifetime.start.p0(i64 1, ptr %21) #7
  store i32 102, ptr %20, align 4, !tbaa !8
  %77 = load i32, ptr %3, align 4, !tbaa !8
  %78 = load i32, ptr %20, align 4, !tbaa !8
  %79 = call zeroext i8 @lean_uint32_dec_le(i32 noundef %77, i32 noundef %78)
  store i8 %79, ptr %21, align 1, !tbaa !14
  %80 = load i8, ptr %21, align 1, !tbaa !14
  %81 = zext i8 %80 to i32
  %82 = icmp eq i32 %81, 0
  br i1 %82, label %83, label %98

83:                                               ; preds = %76
  call void @llvm.lifetime.start.p0(i64 4, ptr %22) #7
  call void @llvm.lifetime.start.p0(i64 1, ptr %23) #7
  store i32 65, ptr %22, align 4, !tbaa !8
  %84 = load i32, ptr %22, align 4, !tbaa !8
  %85 = load i32, ptr %3, align 4, !tbaa !8
  %86 = call zeroext i8 @lean_uint32_dec_le(i32 noundef %84, i32 noundef %85)
  store i8 %86, ptr %23, align 1, !tbaa !14
  %87 = load i8, ptr %23, align 1, !tbaa !14
  %88 = zext i8 %87 to i32
  %89 = icmp eq i32 %88, 0
  br i1 %89, label %90, label %92

90:                                               ; preds = %83
  call void @llvm.lifetime.start.p0(i64 1, ptr %24) #7
  store i8 0, ptr %24, align 1, !tbaa !14
  %91 = load i8, ptr %24, align 1, !tbaa !14
  store i8 %91, ptr %2, align 1
  store i32 1, ptr %8, align 4
  call void @llvm.lifetime.end.p0(i64 1, ptr %24) #7
  br label %97

92:                                               ; preds = %83
  call void @llvm.lifetime.start.p0(i64 4, ptr %25) #7
  call void @llvm.lifetime.start.p0(i64 1, ptr %26) #7
  store i32 70, ptr %25, align 4, !tbaa !8
  %93 = load i32, ptr %3, align 4, !tbaa !8
  %94 = load i32, ptr %25, align 4, !tbaa !8
  %95 = call zeroext i8 @lean_uint32_dec_le(i32 noundef %93, i32 noundef %94)
  store i8 %95, ptr %26, align 1, !tbaa !14
  %96 = load i8, ptr %26, align 1, !tbaa !14
  store i8 %96, ptr %2, align 1
  store i32 1, ptr %8, align 4
  call void @llvm.lifetime.end.p0(i64 1, ptr %26) #7
  call void @llvm.lifetime.end.p0(i64 4, ptr %25) #7
  br label %97

97:                                               ; preds = %92, %90
  call void @llvm.lifetime.end.p0(i64 1, ptr %23) #7
  call void @llvm.lifetime.end.p0(i64 4, ptr %22) #7
  br label %100

98:                                               ; preds = %76
  call void @llvm.lifetime.start.p0(i64 1, ptr %27) #7
  store i8 1, ptr %27, align 1, !tbaa !14
  %99 = load i8, ptr %27, align 1, !tbaa !14
  store i8 %99, ptr %2, align 1
  store i32 1, ptr %8, align 4
  call void @llvm.lifetime.end.p0(i64 1, ptr %27) #7
  br label %100

100:                                              ; preds = %98, %97
  call void @llvm.lifetime.end.p0(i64 1, ptr %21) #7
  call void @llvm.lifetime.end.p0(i64 4, ptr %20) #7
  br label %101

101:                                              ; preds = %100, %75
  call void @llvm.lifetime.end.p0(i64 1, ptr %14) #7
  call void @llvm.lifetime.end.p0(i64 4, ptr %13) #7
  br label %102

102:                                              ; preds = %101, %51, %35
  call void @llvm.lifetime.end.p0(i64 1, ptr %6) #7
  call void @llvm.lifetime.end.p0(i64 4, ptr %5) #7
  call void @llvm.lifetime.end.p0(i64 8, ptr %4) #7
  %103 = load i8, ptr %2, align 1
  ret i8 %103
}

; Function Attrs: alwaysinline nounwind uwtable
define internal void @lean_dec(ptr noundef %0) #1 {
  %2 = alloca ptr, align 8
  store ptr %0, ptr %2, align 8, !tbaa !4
  %3 = load ptr, ptr %2, align 8, !tbaa !4
  %4 = call zeroext i1 @lean_is_scalar(ptr noundef %3)
  br i1 %4, label %7, label %5

5:                                                ; preds = %1
  %6 = load ptr, ptr %2, align 8, !tbaa !4
  call void @lean_dec_ref(ptr noundef %6)
  br label %7

7:                                                ; preds = %5, %1
  ret void
}

; Function Attrs: inlinehint nounwind uwtable
define internal i32 @lean_unbox_uint32(ptr noundef %0) #0 {
  %2 = alloca ptr, align 8
  store ptr %0, ptr %2, align 8, !tbaa !4
  %3 = load ptr, ptr %2, align 8, !tbaa !4
  %4 = call i64 @lean_unbox(ptr noundef %3)
  %5 = trunc i64 %4 to i32
  ret i32 %5
}

; Function Attrs: nounwind uwtable
define ptr @l_Lake_Toml_isHexDigit___boxed(ptr noundef %0) #2 {
  %2 = alloca ptr, align 8
  %3 = alloca i32, align 4
  %4 = alloca i8, align 1
  %5 = alloca ptr, align 8
  store ptr %0, ptr %2, align 8, !tbaa !4
  br label %6

6:                                                ; preds = %1
  call void @llvm.lifetime.start.p0(i64 4, ptr %3) #7
  call void @llvm.lifetime.start.p0(i64 1, ptr %4) #7
  call void @llvm.lifetime.start.p0(i64 8, ptr %5) #7
  %7 = load ptr, ptr %2, align 8, !tbaa !4
  %8 = call i32 @lean_unbox_uint32(ptr noundef %7)
  store i32 %8, ptr %3, align 4, !tbaa !8
  %9 = load ptr, ptr %2, align 8, !tbaa !4
  call void @lean_dec(ptr noundef %9)
  %10 = load i32, ptr %3, align 4, !tbaa !8
  %11 = call zeroext i8 @l_Lake_Toml_isHexDigit(i32 noundef %10)
  store i8 %11, ptr %4, align 1, !tbaa !14
  %12 = load i8, ptr %4, align 1, !tbaa !14
  %13 = zext i8 %12 to i64
  %14 = call ptr @lean_box(i64 noundef %13)
  store ptr %14, ptr %5, align 8, !tbaa !4
  %15 = load ptr, ptr %5, align 8, !tbaa !4
  call void @llvm.lifetime.end.p0(i64 8, ptr %5) #7
  call void @llvm.lifetime.end.p0(i64 1, ptr %4) #7
  call void @llvm.lifetime.end.p0(i64 4, ptr %3) #7
  ret ptr %15
}