; Function Attrs: nounwind uwtable
define noundef nonnull ptr @l_Lake_Toml_isHexDigit___boxed(ptr noundef %0) local_unnamed_addr #1 {
  %2 = ptrtoint ptr %0 to i64
  %3 = lshr i64 %2, 1
  %4 = trunc i64 %3 to i32
  %5 = and i64 %2, 1
  %.not = icmp eq i64 %5, 0
  br i1 %.not, label %6, label %lean_dec.exit

6:                                                ; preds = %1
  %7 = load i32, ptr %0, align 4, !tbaa !4
  %8 = icmp sgt i32 %7, 1
  br i1 %8, label %9, label %11, !prof !9

9:                                                ; preds = %6
  %10 = add nsw i32 %7, -1
  store i32 %10, ptr %0, align 4, !tbaa !4
  br label %lean_dec.exit

11:                                               ; preds = %6
  %.not.i = icmp eq i32 %7, 0
  br i1 %.not.i, label %lean_dec.exit, label %12

12:                                               ; preds = %11
  tail call void @lean_dec_ref_cold(ptr noundef nonnull %0) #4
  br label %lean_dec.exit

lean_dec.exit:                                    ; preds = %12, %11, %9, %1
  %13 = add i32 %4, -58
  %or.cond.i = icmp ult i32 %13, -10
  br i1 %or.cond.i, label %lean_dec.exit.i, label %l_Lake_Toml_isHexDigit.exit.thread

lean_dec.exit.i:                                  ; preds = %lean_dec.exit
  %14 = icmp ult i32 %4, 97
  br i1 %14, label %l_Lake_Toml_isHexDigit.exit, label %15

15:                                               ; preds = %lean_dec.exit.i
  %16 = icmp ult i32 %4, 103
  br i1 %16, label %l_Lake_Toml_isHexDigit.exit.thread, label %18

l_Lake_Toml_isHexDigit.exit:                      ; preds = %lean_dec.exit.i
  %17 = add nsw i32 %4, -65
  %spec.select.i = icmp ult i32 %17, 6
  br i1 %spec.select.i, label %l_Lake_Toml_isHexDigit.exit.thread, label %18

l_Lake_Toml_isHexDigit.exit.thread:               ; preds = %lean_dec.exit, %15, %l_Lake_Toml_isHexDigit.exit
  br label %18

18:                                               ; preds = %15, %l_Lake_Toml_isHexDigit.exit, %l_Lake_Toml_isHexDigit.exit.thread
  %19 = phi ptr [ inttoptr (i64 3 to ptr), %l_Lake_Toml_isHexDigit.exit.thread ], [ inttoptr (i64 1 to ptr), %l_Lake_Toml_isHexDigit.exit ], [ inttoptr (i64 1 to ptr), %15 ]
  ret ptr %19
}